target datalayout = "e-m:e-p270:32:32-p271:32:32-p272:64:64-i64:64-i128:128-f80:128-n8:16:32:64-S128"
target triple = "x86_64-pc-linux-gnu"

%"class.sat::literal" = type { i32 }
%"struct.nlsat::interval" = type { i8, %"class.sat::literal", ptr, %"class.algebraic_numbers::anum", %"class.algebraic_numbers::anum" }
%"class.algebraic_numbers::anum" = type { ptr }
%"class.nlsat::interval_set_manager" = type <{ ptr, ptr, %class.svector, %class.random_gen, [4 x i8] }>
%class.svector = type { %class.vector }
%class.vector = type { ptr }
%class.random_gen = type { i32 }
%"class.nlsat::interval_set" = type { i32, i32, [0 x %"struct.nlsat::interval"] }

; Function Attrs: mustprogress nounwind uwtable
define linkonce_odr hidden void @_ZN17algebraic_numbers4anumC2Ev(ptr noundef nonnull align 8 dereferenceable(8) %0) unnamed_addr #4 comdat align 2 {
  %2 = alloca ptr, align 8
  store ptr %0, ptr %2, align 8, !tbaa !51
  %3 = load ptr, ptr %2, align 8
  %4 = getelementptr inbounds nuw %"class.algebraic_numbers::anum", ptr %3, i32 0, i32 0
  store ptr null, ptr %4, align 8, !tbaa !104
  ret void
}

; Function Attrs: mustprogress nounwind uwtable
define linkonce_odr hidden void @_ZN3sat7literalC2Ev(ptr noundef nonnull align 4 dereferenceable(4) %0) unnamed_addr #4 comdat align 2 {
  %2 = alloca ptr, align 8
  store ptr %0, ptr %2, align 8, !tbaa !3
  %3 = load ptr, ptr %2, align 8
  %4 = getelementptr inbounds nuw %"class.sat::literal", ptr %3, i32 0, i32 0
  store i32 -2, ptr %4, align 4, !tbaa !14
  ret void
}

; Function Attrs: inlinehint mustprogress uwtable
define linkonce_odr hidden void @_ZN5nlsat8intervalC2Ev(ptr noundef nonnull align 8 dereferenceable(32) %0) unnamed_addr #7 comdat align 2 {
  %2 = alloca ptr, align 8
  store ptr %0, ptr %2, align 8, !tbaa !20
  %3 = load ptr, ptr %2, align 8
  %4 = getelementptr inbounds nuw %"struct.nlsat::interval", ptr %3, i32 0, i32 1
  call void @_ZN3sat7literalC2Ev(ptr noundef nonnull align 4 dereferenceable(4) %4)
  %5 = getelementptr inbounds nuw %"struct.nlsat::interval", ptr %3, i32 0, i32 3
  call void @_ZN17algebraic_numbers4anumC2Ev(ptr noundef nonnull align 8 dereferenceable(8) %5)
  %6 = getelementptr inbounds nuw %"struct.nlsat::interval", ptr %3, i32 0, i32 4
  call void @_ZN17algebraic_numbers4anumC2Ev(ptr noundef nonnull align 8 dereferenceable(8) %6)
  ret void
}

; Function Attrs: inlinehint mustprogress nounwind uwtable
define linkonce_odr hidden void @_ZN5nlsat12interval_setC2Ev(ptr noundef nonnull align 8 dereferenceable(8) %0) unnamed_addr #9 comdat align 2 {
  %2 = alloca ptr, align 8
  store ptr %0, ptr %2, align 8, !tbaa !40
  ret void
}

; Function Attrs: mustprogress nounwind uwtable
define linkonce_odr hidden noundef i32 @_ZN5nlsat12interval_set12get_obj_sizeEj(i32 noundef %0) #4 comdat align 2 {
  %2 = alloca i32, align 4
  store i32 %0, ptr %2, align 4, !tbaa !8
  %3 = load i32, ptr %2, align 4, !tbaa !8
  %4 = zext i32 %3 to i64
  %5 = mul i64 %4, 32
  %6 = add i64 8, %5
  %7 = trunc i64 %6 to i32
  ret i32 %7
}

; Function Attrs: mustprogress uwtable
define hidden noundef ptr @_ZN5nlsat20interval_set_manager2mkEbbRKN17algebraic_numbers4anumEbbS4_N3sat7literalEPKNS_6clauseE(ptr noundef nonnull align 8 dereferenceable(28) %0, i1 noundef zeroext %1, i1 noundef zeroext %2, ptr noundef nonnull align 8 dereferenceable(8) %3, i1 noundef zeroext %4, i1 noundef zeroext %5, ptr noundef nonnull align 8 dereferenceable(8) %6, i32 %7, ptr noundef %8) #6 align 2 {
  %10 = alloca %"class.sat::literal", align 4
  %11 = alloca ptr, align 8
  %12 = alloca i8, align 1
  %13 = alloca i8, align 1
  %14 = alloca ptr, align 8
  %15 = alloca i8, align 1
  %16 = alloca i8, align 1
  %17 = alloca ptr, align 8
  %18 = alloca ptr, align 8
  %19 = alloca ptr, align 8
  %20 = alloca ptr, align 8
  %21 = alloca ptr, align 8
  %22 = getelementptr inbounds nuw %"class.sat::literal", ptr %10, i32 0, i32 0
  store i32 %7, ptr %22, align 4
  store ptr %0, ptr %11, align 8, !tbaa !28
  %23 = zext i1 %1 to i8
  store i8 %23, ptr %12, align 1, !tbaa !10
  %24 = zext i1 %2 to i8
  store i8 %24, ptr %13, align 1, !tbaa !10
  store ptr %3, ptr %14, align 8, !tbaa !51
  %25 = zext i1 %4 to i8
  store i8 %25, ptr %15, align 1, !tbaa !10
  %26 = zext i1 %5 to i8
  store i8 %26, ptr %16, align 1, !tbaa !10
  store ptr %6, ptr %17, align 8, !tbaa !51
  store ptr %8, ptr %18, align 8, !tbaa !53
  %27 = load ptr, ptr %11, align 8
  call void @llvm.lifetime.start.p0(i64 8, ptr %19) #3
  %28 = getelementptr inbounds nuw %"class.nlsat::interval_set_manager", ptr %27, i32 0, i32 1
  %29 = load ptr, ptr %28, align 8, !tbaa !50
  %30 = call noundef i32 @_ZN5nlsat12interval_set12get_obj_sizeEj(i32 noundef 1)
  %31 = zext i32 %30 to i64
  %32 = call noundef ptr @_ZN22small_object_allocator8allocateEm(ptr noundef nonnull align 8 dereferenceable(520) %29, i64 noundef %31)
  store ptr %32, ptr %19, align 8, !tbaa !55
  call void @llvm.lifetime.start.p0(i64 8, ptr %20) #3
  %33 = load ptr, ptr %19, align 8, !tbaa !55
  call void @llvm.memset.p0.i64(ptr align 8 %33, i8 0, i64 8, i1 false)
  call void @_ZN5nlsat12interval_setC2Ev(ptr noundef nonnull align 8 dereferenceable(8) %33)
  store ptr %33, ptr %20, align 8, !tbaa !40
  %34 = load ptr, ptr %20, align 8, !tbaa !40
  %35 = getelementptr inbounds nuw %"class.nlsat::interval_set", ptr %34, i32 0, i32 0
  store i32 1, ptr %35, align 8, !tbaa !42
  %36 = load ptr, ptr %20, align 8, !tbaa !40
  %37 = getelementptr inbounds nuw %"class.nlsat::interval_set", ptr %36, i32 0, i32 1
  %38 = load i32, ptr %37, align 4
  %39 = and i32 %38, -2147483648
  %40 = or i32 %39, 0
  store i32 %40, ptr %37, align 4
  %41 = load i8, ptr %13, align 1, !tbaa !10, !range !12, !noundef !13
  %42 = trunc i8 %41 to i1
  br i1 %42, label %43, label %46

43:                                               ; preds = %9
  %44 = load i8, ptr %16, align 1, !tbaa !10, !range !12, !noundef !13
  %45 = trunc i8 %44 to i1
  br label %46

46:                                               ; preds = %43, %9
  %47 = phi i1 [ false, %9 ], [ %45, %43 ]
  %48 = zext i1 %47 to i32
  %49 = load ptr, ptr %20, align 8, !tbaa !40
  %50 = getelementptr inbounds nuw %"class.nlsat::interval_set", ptr %49, i32 0, i32 1
  %51 = load i32, ptr %50, align 4
  %52 = and i32 %48, 1
  %53 = shl i32 %52, 31
  %54 = and i32 %51, 2147483647
  %55 = or i32 %54, %53
  store i32 %55, ptr %50, align 4
  call void @llvm.lifetime.start.p0(i64 8, ptr %21) #3
  %56 = load ptr, ptr %20, align 8, !tbaa !40
  %57 = getelementptr inbounds nuw %"class.nlsat::interval_set", ptr %56, i32 0, i32 2
  %58 = getelementptr inbounds [0 x %"struct.nlsat::interval"], ptr %57, i64 0, i64 0
  call void @llvm.memset.p0.i64(ptr align 8 %58, i8 0, i64 32, i1 false)
  call void @_ZN5nlsat8intervalC2Ev(ptr noundef nonnull align 8 dereferenceable(32) %58)
  store ptr %58, ptr %21, align 8, !tbaa !20
  %59 = load i8, ptr %12, align 1, !tbaa !10, !range !12, !noundef !13
  %60 = trunc i8 %59 to i1
  %61 = zext i1 %60 to i32
  %62 = load ptr, ptr %21, align 8, !tbaa !20
  %63 = trunc i32 %61 to i8
  %64 = load i8, ptr %62, align 8
  %65 = and i8 %63, 1
  %66 = and i8 %64, -2
  %67 = or i8 %66, %65
  store i8 %67, ptr %62, align 8
  %68 = load i8, ptr %13, align 1, !tbaa !10, !range !12, !noundef !13
  %69 = trunc i8 %68 to i1
  %70 = zext i1 %69 to i32
  %71 = load ptr, ptr %21, align 8, !tbaa !20
  %72 = trunc i32 %70 to i8
  %73 = load i8, ptr %71, align 8
  %74 = and i8 %72, 1
  %75 = shl i8 %74, 2
  %76 = and i8 %73, -5
  %77 = or i8 %76, %75
  store i8 %77, ptr %71, align 8
  %78 = load i8, ptr %15, align 1, !tbaa !10, !range !12, !noundef !13
  %79 = trunc i8 %78 to i1
  %80 = zext i1 %79 to i32
  %81 = load ptr, ptr %21, align 8, !tbaa !20
  %82 = trunc i32 %80 to i8
  %83 = load i8, ptr %81, align 8
  %84 = and i8 %82, 1
  %85 = shl i8 %84, 1
  %86 = and i8 %83, -3
  %87 = or i8 %86, %85
  store i8 %87, ptr %81, align 8
  %88 = load i8, ptr %16, align 1, !tbaa !10, !range !12, !noundef !13
  %89 = trunc i8 %88 to i1
  %90 = zext i1 %89 to i32
  %91 = load ptr, ptr %21, align 8, !tbaa !20
  %92 = trunc i32 %90 to i8
  %93 = load i8, ptr %91, align 8
  %94 = and i8 %92, 1
  %95 = shl i8 %94, 3
  %96 = and i8 %93, -9
  %97 = or i8 %96, %95
  store i8 %97, ptr %91, align 8
  %98 = load ptr, ptr %21, align 8, !tbaa !20
  %99 = getelementptr inbounds nuw %"struct.nlsat::interval", ptr %98, i32 0, i32 1
  call void @llvm.memcpy.p0.p0.i64(ptr align 4 %99, ptr align 4 %10, i64 4, i1 false), !tbaa.struct !56
  %100 = load ptr, ptr %18, align 8, !tbaa !53
  %101 = load ptr, ptr %21, align 8, !tbaa !20
  %102 = getelementptr inbounds nuw %"struct.nlsat::interval", ptr %101, i32 0, i32 2
  store ptr %100, ptr %102, align 8, !tbaa !57
  %103 = load i8, ptr %13, align 1, !tbaa !10, !range !12, !noundef !13
  %104 = trunc i8 %103 to i1
  br i1 %104, label %111, label %105

105:                                              ; preds = %46
  %106 = getelementptr inbounds nuw %"class.nlsat::interval_set_manager", ptr %27, i32 0, i32 0
  %107 = load ptr, ptr %106, align 8, !tbaa !44
  %108 = load ptr, ptr %21, align 8, !tbaa !20
  %109 = getelementptr inbounds nuw %"struct.nlsat::interval", ptr %108, i32 0, i32 3
  %110 = load ptr, ptr %14, align 8, !tbaa !51
  call void @_ZN17algebraic_numbers7manager3setERNS_4anumERKS1_(ptr noundef nonnull align 8 dereferenceable(17) %107, ptr noundef nonnull align 8 dereferenceable(8) %109, ptr noundef nonnull align 8 dereferenceable(8) %110)
  br label %111

111:                                              ; preds = %105, %46
  %112 = load i8, ptr %16, align 1, !tbaa !10, !range !12, !noundef !13
  %113 = trunc i8 %112 to i1
  br i1 %113, label %120, label %114

114:                                              ; preds = %111
  %115 = getelementptr inbounds nuw %"class.nlsat::interval_set_manager", ptr %27, i32 0, i32 0
  %116 = load ptr, ptr %115, align 8, !tbaa !44
  %117 = load ptr, ptr %21, align 8, !tbaa !20
  %118 = getelementptr inbounds nuw %"struct.nlsat::interval", ptr %117, i32 0, i32 4
  %119 = load ptr, ptr %17, align 8, !tbaa !51
  call void @_ZN17algebraic_numbers7manager3setERNS_4anumERKS1_(ptr noundef nonnull align 8 dereferenceable(17) %116, ptr noundef nonnull align 8 dereferenceable(8) %118, ptr noundef nonnull align 8 dereferenceable(8) %119)
  br label %120

120:                                              ; preds = %114, %111
  %121 = load ptr, ptr %20, align 8, !tbaa !40
  call void @llvm.lifetime.end.p0(i64 8, ptr %21) #3
  call void @llvm.lifetime.end.p0(i64 8, ptr %20) #3
  call void @llvm.lifetime.end.p0(i64 8, ptr %19) #3
  ret ptr %121
}