; Function Attrs: mustprogress uwtable
define hidden noundef ptr @_ZN5nlsat20interval_set_manager2mkEbbRKN17algebraic_numbers4anumEbbS4_N3sat7literalEPKNS_6clauseE(ptr noundef nonnull readonly align 8 captures(none) dereferenceable(28) %0, i1 noundef zeroext %1, i1 noundef zeroext %2, ptr noundef nonnull align 8 dereferenceable(8) %3, i1 noundef zeroext %4, i1 noundef zeroext %5, ptr noundef nonnull align 8 dereferenceable(8) %6, i32 %7, ptr noundef %8) local_unnamed_addr #4 align 2 {
  %10 = getelementptr inbounds nuw i8, ptr %0, i64 8
  %11 = load ptr, ptr %10, align 8, !tbaa !20
  %12 = tail call noundef ptr @_ZN22small_object_allocator8allocateEm(ptr noundef nonnull align 8 dereferenceable(520) %11, i64 noundef 40)
  store i64 1, ptr %12, align 8
  %13 = getelementptr inbounds nuw i8, ptr %12, i64 4
  %14 = and i1 %2, %5
  %15 = select i1 %14, i32 -2147483648, i32 0
  store i32 %15, ptr %13, align 4
  %16 = getelementptr inbounds nuw i8, ptr %12, i64 8
  store i64 0, ptr %16, align 8
  %17 = getelementptr inbounds nuw i8, ptr %12, i64 12
  %18 = getelementptr inbounds nuw i8, ptr %12, i64 24
  tail call void @llvm.memset.p0.i64(ptr noundef nonnull align 8 dereferenceable(16) %18, i8 0, i64 16, i1 false)
  %19 = zext i1 %1 to i8
  %20 = select i1 %2, i8 4, i8 0
  %21 = or disjoint i8 %20, %19
  %22 = select i1 %4, i8 2, i8 0
  %23 = or disjoint i8 %21, %22
  %24 = select i1 %5, i8 8, i8 0
  %25 = or disjoint i8 %23, %24
  store i8 %25, ptr %16, align 8
  store i32 %7, ptr %17, align 4, !tbaa !26
  %26 = getelementptr inbounds nuw i8, ptr %12, i64 16
  store ptr %8, ptr %26, align 8, !tbaa !27
  br i1 %2, label %29, label %27

27:                                               ; preds = %9
  %28 = load ptr, ptr %0, align 8, !tbaa !23
  tail call void @_ZN17algebraic_numbers7manager3setERNS_4anumERKS1_(ptr noundef nonnull align 8 dereferenceable(17) %28, ptr noundef nonnull align 8 dereferenceable(8) %18, ptr noundef nonnull align 8 dereferenceable(8) %3)
  br label %29

29:                                               ; preds = %27, %9
  br i1 %5, label %33, label %30

30:                                               ; preds = %29
  %31 = load ptr, ptr %0, align 8, !tbaa !23
  %32 = getelementptr inbounds nuw i8, ptr %12, i64 32
  tail call void @_ZN17algebraic_numbers7manager3setERNS_4anumERKS1_(ptr noundef nonnull align 8 dereferenceable(17) %31, ptr noundef nonnull align 8 dereferenceable(8) %32, ptr noundef nonnull align 8 dereferenceable(8) %6)
  br label %33

33:                                               ; preds = %30, %29
  ret ptr %12
}